; Function Attrs: mustprogress uwtable
define void @_ZN7rocksdb13PinnableSliceC2EOS0_(ptr noundef nonnull align 8 dereferenceable(89) %this, ptr noundef nonnull align 8 dereferenceable(89) %other) unnamed_addr #0 align 2 personality ptr @__gxx_personality_v0 {
entry:
  store ptr @.str.2, ptr %this, align 8
  %size_.i = getelementptr inbounds i8, ptr %this, i64 8
  store i64 0, ptr %size_.i, align 8
  %0 = getelementptr inbounds i8, ptr %this, i64 16
  tail call void @_ZN7rocksdb9CleanableC2Ev(ptr noundef nonnull align 8 dereferenceable(32) %0)
  %self_space_ = getelementptr inbounds i8, ptr %this, i64 48
  tail call void @_ZNSt7__cxx1112basic_stringIcSt11char_traitsIcESaIcEEC1Ev(ptr noundef nonnull align 8 dereferenceable(32) %self_space_) #21
  %pinned_ = getelementptr inbounds i8, ptr %this, i64 88
  store i8 0, ptr %pinned_, align 8
  %call = invoke noundef nonnull align 8 dereferenceable(89) ptr @_ZN7rocksdb13PinnableSliceaSEOS0_(ptr noundef nonnull align 8 dereferenceable(89) %this, ptr noundef nonnull align 8 dereferenceable(89) %other)
          to label %invoke.cont unwind label %lpad

invoke.cont:                                      ; preds = %entry
  ret void

lpad:                                             ; preds = %entry
  %1 = landingpad { ptr, i32 }
          cleanup
  tail call void @_ZNSt7__cxx1112basic_stringIcSt11char_traitsIcESaIcEED1Ev(ptr noundef nonnull align 8 dereferenceable(32) %self_space_) #21
  tail call void @_ZN7rocksdb9CleanableD2Ev(ptr noundef nonnull align 8 dereferenceable(32) %0) #21
  resume { ptr, i32 } %1
}